target datalayout = "e-m:e-p270:32:32-p271:32:32-p272:64:64-i64:64-i128:128-f80:128-n8:16:32:64-S128"
target triple = "x86_64-pc-linux-gnu"

%struct.Clobbers = type { [4 x i64] }
%struct.VHeader_ = type { i32, i32, [0 x i8] }
%struct.AsmInlineBlock = type { %struct.Clobbers, ptr, i32, ptr, ptr }
%struct.ExprAsmArg = type { i64, %union.anon.44 }
%union.anon.44 = type { %struct.anon.45 }
%struct.anon.45 = type { %union.anon.46, i8 }
%union.anon.46 = type { ptr }

@.str.19 = private unnamed_addr constant [21 x i8] c"Too many input vars.\00", align 1

; Function Attrs: nounwind uwtable
define internal ptr @vec_new_(i64 noundef %0, i64 noundef %1) #0 {
  %3 = alloca i64, align 8
  %4 = alloca i64, align 8
  %5 = alloca ptr, align 8
  store i64 %0, ptr %3, align 8
  store i64 %1, ptr %4, align 8
  %6 = load i64, ptr %3, align 8
  %7 = load i64, ptr %4, align 8
  %8 = mul i64 %6, %7
  %9 = add i64 %8, 8
  %10 = call ptr @calloc_arena(i64 noundef %9)
  store ptr %10, ptr %5, align 8
  %11 = load i64, ptr %4, align 8
  %12 = trunc i64 %11 to i32
  %13 = load ptr, ptr %5, align 8
  %14 = getelementptr inbounds %struct.VHeader_, ptr %13, i32 0, i32 1
  store i32 %12, ptr %14, align 4
  %15 = load ptr, ptr %5, align 8
  ret ptr %15
}

; Function Attrs: nounwind uwtable
define internal ptr @expand_(ptr noundef %0, i64 noundef %1) #0 {
  %3 = alloca ptr, align 8
  %4 = alloca i64, align 8
  %5 = alloca ptr, align 8
  %6 = alloca ptr, align 8
  %7 = alloca i64, align 8
  store ptr %0, ptr %3, align 8
  store i64 %1, ptr %4, align 8
  %8 = load ptr, ptr %3, align 8
  %9 = icmp ne ptr %8, null
  br i1 %9, label %13, label %10

10:                                               ; preds = %2
  %11 = load i64, ptr %4, align 8
  %12 = call ptr @vec_new_(i64 noundef %11, i64 noundef 8)
  store ptr %12, ptr %5, align 8
  br label %16

13:                                               ; preds = %2
  %14 = load ptr, ptr %3, align 8
  %15 = getelementptr inbounds %struct.VHeader_, ptr %14, i64 -1
  store ptr %15, ptr %5, align 8
  br label %16

16:                                               ; preds = %13, %10
  %17 = load ptr, ptr %5, align 8
  %18 = getelementptr inbounds %struct.VHeader_, ptr %17, i32 0, i32 0
  %19 = load i32, ptr %18, align 4
  %20 = load ptr, ptr %5, align 8
  %21 = getelementptr inbounds %struct.VHeader_, ptr %20, i32 0, i32 1
  %22 = load i32, ptr %21, align 4
  %23 = icmp eq i32 %19, %22
  br i1 %23, label %24, label %49

24:                                               ; preds = %16
  %25 = load i64, ptr %4, align 8
  %26 = load ptr, ptr %5, align 8
  %27 = getelementptr inbounds %struct.VHeader_, ptr %26, i32 0, i32 1
  %28 = load i32, ptr %27, align 4
  %29 = shl i32 %28, 1
  %30 = zext i32 %29 to i64
  %31 = call ptr @vec_new_(i64 noundef %25, i64 noundef %30)
  store ptr %31, ptr %6, align 8
  %32 = load i64, ptr %4, align 8
  %33 = load ptr, ptr %5, align 8
  %34 = getelementptr inbounds %struct.VHeader_, ptr %33, i32 0, i32 1
  %35 = load i32, ptr %34, align 4
  %36 = zext i32 %35 to i64
  %37 = mul i64 %32, %36
  %38 = add i64 %37, 8
  store i64 %38, ptr %7, align 8
  %39 = load ptr, ptr %6, align 8
  %40 = load ptr, ptr %5, align 8
  %41 = load i64, ptr %7, align 8
  call void @llvm.memcpy.p0.p0.i64(ptr align 4 %39, ptr align 4 %40, i64 %41, i1 false)
  %42 = load ptr, ptr %6, align 8
  store ptr %42, ptr %5, align 8
  %43 = load ptr, ptr %5, align 8
  %44 = getelementptr inbounds %struct.VHeader_, ptr %43, i32 0, i32 1
  %45 = load i32, ptr %44, align 4
  %46 = shl i32 %45, 1
  %47 = load ptr, ptr %6, align 8
  %48 = getelementptr inbounds %struct.VHeader_, ptr %47, i32 0, i32 1
  store i32 %46, ptr %48, align 4
  br label %49

49:                                               ; preds = %24, %16
  %50 = load ptr, ptr %5, align 8
  %51 = getelementptr inbounds %struct.VHeader_, ptr %50, i32 0, i32 0
  %52 = load i32, ptr %51, align 4
  %53 = add i32 %52, 1
  store i32 %53, ptr %51, align 4
  %54 = load ptr, ptr %5, align 8
  %55 = getelementptr inbounds %struct.VHeader_, ptr %54, i64 1
  ret ptr %55
}

; Function Attrs: nounwind uwtable
define internal void @asm_add_input(ptr noundef %0, ptr noundef %1) #0 {
  %3 = alloca i32, align 4
  %4 = alloca ptr, align 8
  %5 = alloca ptr, align 8
  %6 = alloca i32, align 4
  %7 = alloca ptr, align 8
  %8 = alloca ptr, align 8
  %9 = alloca ptr, align 8
  %10 = alloca ptr, align 8
  %11 = alloca i32, align 4
  %12 = alloca ptr, align 8
  store ptr %0, ptr %9, align 8
  store ptr %1, ptr %10, align 8
  %13 = load ptr, ptr %9, align 8
  %14 = getelementptr inbounds %struct.AsmInlineBlock, ptr %13, i32 0, i32 4
  %15 = load ptr, ptr %14, align 8
  store ptr %15, ptr %4, align 8
  %16 = load ptr, ptr %4, align 8
  %17 = icmp ne ptr %16, null
  br i1 %17, label %19, label %18

18:                                               ; preds = %2
  store i32 0, ptr %3, align 4
  br label %24

19:                                               ; preds = %2
  %20 = load ptr, ptr %4, align 8
  store ptr %20, ptr %5, align 8
  %21 = load ptr, ptr %5, align 8
  %22 = getelementptr inbounds %struct.VHeader_, ptr %21, i64 -1
  %23 = load i32, ptr %22, align 4
  store i32 %23, ptr %3, align 4
  br label %24

24:                                               ; preds = %19, %18
  %25 = load i32, ptr %3, align 4
  store i32 %25, ptr %11, align 4
  %26 = load i32, ptr %11, align 4
  %27 = icmp ugt i32 %26, 65535
  br i1 %27, label %28, label %29

28:                                               ; preds = %24
  call void (ptr, ...) @error_exit(ptr noundef @.str.19) #4
  unreachable

29:                                               ; preds = %24
  %30 = load i32, ptr %11, align 4
  %31 = trunc i32 %30 to i16
  %32 = load ptr, ptr %10, align 8
  %33 = zext i16 %31 to i64
  %34 = load i64, ptr %32, align 8
  %35 = and i64 %33, 65535
  %36 = shl i64 %35, 16
  %37 = and i64 %34, -4294901761
  %38 = or i64 %37, %36
  store i64 %38, ptr %32, align 8
  br label %39

39:                                               ; preds = %29
  %40 = load ptr, ptr %9, align 8
  %41 = getelementptr inbounds %struct.AsmInlineBlock, ptr %40, i32 0, i32 4
  %42 = load ptr, ptr %41, align 8
  %43 = call ptr @expand_(ptr noundef %42, i64 noundef 8)
  store ptr %43, ptr %12, align 8
  %44 = load ptr, ptr %12, align 8
  %45 = load ptr, ptr %9, align 8
  %46 = getelementptr inbounds %struct.AsmInlineBlock, ptr %45, i32 0, i32 4
  store ptr %44, ptr %46, align 8
  %47 = load ptr, ptr %10, align 8
  %48 = load ptr, ptr %9, align 8
  %49 = getelementptr inbounds %struct.AsmInlineBlock, ptr %48, i32 0, i32 4
  %50 = load ptr, ptr %49, align 8
  %51 = load ptr, ptr %9, align 8
  %52 = getelementptr inbounds %struct.AsmInlineBlock, ptr %51, i32 0, i32 4
  %53 = load ptr, ptr %52, align 8
  store ptr %53, ptr %7, align 8
  %54 = load ptr, ptr %7, align 8
  %55 = icmp ne ptr %54, null
  br i1 %55, label %57, label %56

56:                                               ; preds = %39
  store i32 0, ptr %6, align 4
  br label %62

57:                                               ; preds = %39
  %58 = load ptr, ptr %7, align 8
  store ptr %58, ptr %8, align 8
  %59 = load ptr, ptr %8, align 8
  %60 = getelementptr inbounds %struct.VHeader_, ptr %59, i64 -1
  %61 = load i32, ptr %60, align 4
  store i32 %61, ptr %6, align 4
  br label %62

62:                                               ; preds = %57, %56
  %63 = load i32, ptr %6, align 4
  %64 = sub i32 %63, 1
  %65 = zext i32 %64 to i64
  %66 = getelementptr inbounds ptr, ptr %50, i64 %65
  store ptr %47, ptr %66, align 8
  br label %67

67:                                               ; preds = %62
  ret void
}

; Function Attrs: nounwind uwtable
define internal ptr @asm_reg_find_decl(ptr noundef %0, ptr noundef %1, i32 noundef %2) #0 {
  %4 = alloca i32, align 4
  %5 = alloca ptr, align 8
  %6 = alloca ptr, align 8
  %7 = alloca ptr, align 8
  %8 = alloca ptr, align 8
  %9 = alloca ptr, align 8
  %10 = alloca i32, align 4
  %11 = alloca ptr, align 8
  %12 = alloca i32, align 4
  %13 = alloca i32, align 4
  %14 = alloca ptr, align 8
  store ptr %0, ptr %8, align 8
  store ptr %1, ptr %9, align 8
  store i32 %2, ptr %10, align 4
  %15 = load ptr, ptr %8, align 8
  store ptr %15, ptr %11, align 8
  %16 = load ptr, ptr %11, align 8
  store ptr %16, ptr %5, align 8
  %17 = load ptr, ptr %5, align 8
  %18 = icmp ne ptr %17, null
  br i1 %18, label %20, label %19

19:                                               ; preds = %3
  store i32 0, ptr %4, align 4
  br label %25

20:                                               ; preds = %3
  %21 = load ptr, ptr %5, align 8
  store ptr %21, ptr %6, align 8
  %22 = load ptr, ptr %6, align 8
  %23 = getelementptr inbounds %struct.VHeader_, ptr %22, i64 -1
  %24 = load i32, ptr %23, align 4
  store i32 %24, ptr %4, align 4
  br label %25

25:                                               ; preds = %20, %19
  %26 = load i32, ptr %4, align 4
  store i32 %26, ptr %12, align 4
  store i32 0, ptr %13, align 4
  br label %27

27:                                               ; preds = %53, %25
  %28 = load i32, ptr %13, align 4
  %29 = load i32, ptr %12, align 4
  %30 = icmp ult i32 %28, %29
  br i1 %30, label %31, label %56

31:                                               ; preds = %27
  %32 = load ptr, ptr %11, align 8
  %33 = load i32, ptr %13, align 4
  %34 = zext i32 %33 to i64
  %35 = getelementptr inbounds ptr, ptr %32, i64 %34
  %36 = load ptr, ptr %35, align 8
  store ptr %36, ptr %14, align 8
  %37 = load ptr, ptr %14, align 8
  %38 = load i64, ptr %37, align 8
  %39 = and i64 %38, 255
  %40 = trunc i64 %39 to i32
  %41 = load i32, ptr %10, align 4
  %42 = icmp eq i32 %40, %41
  br i1 %42, label %43, label %52

43:                                               ; preds = %31
  %44 = load ptr, ptr %14, align 8
  %45 = getelementptr inbounds %struct.ExprAsmArg, ptr %44, i32 0, i32 1
  %46 = getelementptr inbounds %struct.anon.45, ptr %45, i32 0, i32 0
  %47 = load ptr, ptr %46, align 8
  %48 = load ptr, ptr %9, align 8
  %49 = icmp eq ptr %47, %48
  br i1 %49, label %50, label %52

50:                                               ; preds = %43
  %51 = load ptr, ptr %14, align 8
  store ptr %51, ptr %7, align 8
  br label %59

52:                                               ; preds = %43, %31
  br label %53

53:                                               ; preds = %52
  %54 = load i32, ptr %13, align 4
  %55 = add i32 %54, 1
  store i32 %55, ptr %13, align 4
  br label %27, !llvm.loop !11

56:                                               ; preds = %27
  br label %57

57:                                               ; preds = %56
  br label %58

58:                                               ; preds = %57
  store ptr null, ptr %7, align 8
  br label %59

59:                                               ; preds = %58, %50
  %60 = load ptr, ptr %7, align 8
  ret ptr %60
}

; Function Attrs: nounwind uwtable
define internal void @asm_reg_add_input(ptr noundef %0, ptr noundef %1) #0 {
  %3 = alloca i32, align 4
  %4 = alloca ptr, align 8
  %5 = alloca ptr, align 8
  %6 = alloca ptr, align 8
  %7 = alloca ptr, align 8
  %8 = alloca ptr, align 8
  %9 = alloca ptr, align 8
  %10 = alloca ptr, align 8
  %11 = alloca ptr, align 8
  %12 = alloca i32, align 4
  %13 = alloca ptr, align 8
  %14 = alloca i32, align 4
  store ptr %0, ptr %6, align 8
  store ptr %1, ptr %7, align 8
  %15 = load ptr, ptr %7, align 8
  %16 = getelementptr inbounds %struct.ExprAsmArg, ptr %15, i32 0, i32 1
  %17 = getelementptr inbounds %struct.anon.45, ptr %16, i32 0, i32 0
  %18 = load ptr, ptr %17, align 8
  store ptr %18, ptr %8, align 8
  %19 = load ptr, ptr %7, align 8
  %20 = load i64, ptr %19, align 8
  %21 = and i64 %20, 255
  %22 = trunc i64 %21 to i32
  %23 = icmp eq i32 %22, 4
  br i1 %23, label %24, label %25

24:                                               ; preds = %2
  br label %35

25:                                               ; preds = %2
  %26 = load ptr, ptr %6, align 8
  %27 = getelementptr inbounds %struct.AsmInlineBlock, ptr %26, i32 0, i32 3
  %28 = load ptr, ptr %27, align 8
  %29 = load ptr, ptr %8, align 8
  %30 = load ptr, ptr %7, align 8
  %31 = load i64, ptr %30, align 8
  %32 = and i64 %31, 255
  %33 = trunc i64 %32 to i32
  %34 = call ptr @asm_reg_find_decl(ptr noundef %28, ptr noundef %29, i32 noundef %33)
  br label %35

35:                                               ; preds = %25, %24
  %36 = phi ptr [ null, %24 ], [ %34, %25 ]
  store ptr %36, ptr %9, align 8
  %37 = load ptr, ptr %9, align 8
  %38 = icmp ne ptr %37, null
  br i1 %38, label %39, label %64

39:                                               ; preds = %35
  %40 = load ptr, ptr %7, align 8
  %41 = getelementptr inbounds %struct.ExprAsmArg, ptr %40, i32 0, i32 1
  %42 = getelementptr inbounds %struct.anon.45, ptr %41, i32 0, i32 1
  %43 = load i8, ptr %42, align 8
  %44 = and i8 %43, -2
  %45 = or i8 %44, 1
  store i8 %45, ptr %42, align 8
  %46 = load ptr, ptr %9, align 8
  %47 = getelementptr inbounds %struct.ExprAsmArg, ptr %46, i32 0, i32 1
  %48 = getelementptr inbounds %struct.anon.45, ptr %47, i32 0, i32 1
  %49 = load i8, ptr %48, align 8
  %50 = and i8 %49, -2
  %51 = or i8 %50, 1
  store i8 %51, ptr %48, align 8
  %52 = load ptr, ptr %9, align 8
  %53 = load i64, ptr %52, align 8
  %54 = lshr i64 %53, 16
  %55 = and i64 %54, 65535
  %56 = trunc i64 %55 to i16
  %57 = load ptr, ptr %7, align 8
  %58 = zext i16 %56 to i64
  %59 = load i64, ptr %57, align 8
  %60 = and i64 %58, 65535
  %61 = shl i64 %60, 16
  %62 = and i64 %59, -4294901761
  %63 = or i64 %62, %61
  store i64 %63, ptr %57, align 8
  br label %93

64:                                               ; preds = %35
  %65 = load ptr, ptr %6, align 8
  %66 = getelementptr inbounds %struct.AsmInlineBlock, ptr %65, i32 0, i32 4
  %67 = load ptr, ptr %66, align 8
  %68 = load ptr, ptr %8, align 8
  %69 = load ptr, ptr %7, align 8
  %70 = load i64, ptr %69, align 8
  %71 = and i64 %70, 255
  %72 = trunc i64 %71 to i32
  %73 = call ptr @asm_reg_find_decl(ptr noundef %67, ptr noundef %68, i32 noundef %72)
  store ptr %73, ptr %10, align 8
  %74 = load ptr, ptr %10, align 8
  %75 = icmp ne ptr %74, null
  br i1 %75, label %76, label %89

76:                                               ; preds = %64
  %77 = load ptr, ptr %10, align 8
  %78 = load i64, ptr %77, align 8
  %79 = lshr i64 %78, 16
  %80 = and i64 %79, 65535
  %81 = trunc i64 %80 to i16
  %82 = load ptr, ptr %7, align 8
  %83 = zext i16 %81 to i64
  %84 = load i64, ptr %82, align 8
  %85 = and i64 %83, 65535
  %86 = shl i64 %85, 16
  %87 = and i64 %84, -4294901761
  %88 = or i64 %87, %86
  store i64 %88, ptr %82, align 8
  br label %92

89:                                               ; preds = %64
  %90 = load ptr, ptr %6, align 8
  %91 = load ptr, ptr %7, align 8
  call void @asm_add_input(ptr noundef %90, ptr noundef %91)
  br label %92

92:                                               ; preds = %89, %76
  br label %93

93:                                               ; preds = %92, %39
  %94 = load ptr, ptr %6, align 8
  %95 = getelementptr inbounds %struct.AsmInlineBlock, ptr %94, i32 0, i32 3
  %96 = load ptr, ptr %95, align 8
  store ptr %96, ptr %11, align 8
  %97 = load ptr, ptr %11, align 8
  store ptr %97, ptr %4, align 8
  %98 = load ptr, ptr %4, align 8
  %99 = icmp ne ptr %98, null
  br i1 %99, label %101, label %100

100:                                              ; preds = %93
  store i32 0, ptr %3, align 4
  br label %106

101:                                              ; preds = %93
  %102 = load ptr, ptr %4, align 8
  store ptr %102, ptr %5, align 8
  %103 = load ptr, ptr %5, align 8
  %104 = getelementptr inbounds %struct.VHeader_, ptr %103, i64 -1
  %105 = load i32, ptr %104, align 4
  store i32 %105, ptr %3, align 4
  br label %106

106:                                              ; preds = %101, %100
  %107 = load i32, ptr %3, align 4
  store i32 %107, ptr %12, align 4
  %108 = load ptr, ptr %11, align 8
  %109 = icmp ne ptr %108, null
  br i1 %109, label %110, label %114

110:                                              ; preds = %106
  %111 = load ptr, ptr %11, align 8
  %112 = getelementptr inbounds ptr, ptr %111, i64 0
  %113 = load ptr, ptr %112, align 8
  store ptr %113, ptr %13, align 8
  br label %114

114:                                              ; preds = %110, %106
  store i32 0, ptr %14, align 4
  br label %115

115:                                              ; preds = %126, %114
  %116 = load i32, ptr %14, align 4
  %117 = load i32, ptr %12, align 4
  %118 = icmp ult i32 %116, %117
  br i1 %118, label %119, label %133

119:                                              ; preds = %115
  %120 = load ptr, ptr %13, align 8
  %121 = getelementptr inbounds %struct.ExprAsmArg, ptr %120, i32 0, i32 1
  %122 = getelementptr inbounds %struct.anon.45, ptr %121, i32 0, i32 1
  %123 = load i8, ptr %122, align 8
  %124 = and i8 %123, -3
  %125 = or i8 %124, 2
  store i8 %125, ptr %122, align 8
  br label %126

126:                                              ; preds = %119
  %127 = load ptr, ptr %11, align 8
  %128 = load i32, ptr %14, align 4
  %129 = add i32 %128, 1
  store i32 %129, ptr %14, align 4
  %130 = zext i32 %129 to i64
  %131 = getelementptr inbounds ptr, ptr %127, i64 %130
  %132 = load ptr, ptr %131, align 8
  store ptr %132, ptr %13, align 8
  br label %115, !llvm.loop !10

133:                                              ; preds = %115
  ret void
}