; Function Attrs: nounwind uwtable
define internal fastcc void @asm_reg_add_input(ptr nocapture noundef %0, ptr noundef %1) unnamed_addr #0 {
  %3 = getelementptr inbounds i8, ptr %1, i64 8
  %4 = load ptr, ptr %3, align 8
  %5 = load i64, ptr %1, align 8
  %6 = trunc i64 %5 to i32
  %7 = and i32 %6, 255
  %8 = icmp eq i32 %7, 4
  br i1 %8, label %.loopexit56, label %9

9:                                                ; preds = %2
  %10 = getelementptr inbounds i8, ptr %0, i64 48
  %11 = load ptr, ptr %10, align 8
  %.not.i = icmp eq ptr %11, null
  br i1 %.not.i, label %.loopexit56, label %12

12:                                               ; preds = %9
  %13 = getelementptr inbounds i8, ptr %11, i64 -8
  %14 = load i32, ptr %13, align 4
  %.not22.i = icmp eq i32 %14, 0
  br i1 %.not22.i, label %.loopexit56, label %.lr.ph.preheader.i

.lr.ph.preheader.i:                               ; preds = %12
  %wide.trip.count.i = zext i32 %14 to i64
  br label %.lr.ph.i

.lr.ph.i:                                         ; preds = %25, %.lr.ph.preheader.i
  %indvars.iv.i = phi i64 [ 0, %.lr.ph.preheader.i ], [ %indvars.iv.next.i, %25 ]
  %15 = getelementptr inbounds ptr, ptr %11, i64 %indvars.iv.i
  %16 = load ptr, ptr %15, align 8
  %17 = load i64, ptr %16, align 8
  %18 = trunc i64 %17 to i32
  %19 = and i32 %18, 255
  %20 = icmp eq i32 %19, %7
  br i1 %20, label %21, label %25

21:                                               ; preds = %.lr.ph.i
  %22 = getelementptr inbounds i8, ptr %16, i64 8
  %23 = load ptr, ptr %22, align 8
  %24 = icmp eq ptr %23, %4
  br i1 %24, label %asm_reg_find_decl.exit, label %25

25:                                               ; preds = %21, %.lr.ph.i
  %indvars.iv.next.i = add nuw nsw i64 %indvars.iv.i, 1
  %exitcond.not.i = icmp eq i64 %indvars.iv.next.i, %wide.trip.count.i
  br i1 %exitcond.not.i, label %.loopexit56, label %.lr.ph.i, !llvm.loop !10

asm_reg_find_decl.exit:                           ; preds = %21
  %26 = getelementptr inbounds i8, ptr %1, i64 16
  %27 = load i8, ptr %26, align 8
  %28 = or i8 %27, 1
  store i8 %28, ptr %26, align 8
  %29 = getelementptr inbounds i8, ptr %16, i64 16
  %30 = load i8, ptr %29, align 8
  %31 = or i8 %30, 1
  store i8 %31, ptr %29, align 8
  %32 = load i64, ptr %16, align 8
  %33 = and i64 %32, 4294901760
  %34 = load i64, ptr %1, align 8
  %35 = and i64 %34, -4294901761
  %36 = or disjoint i64 %35, %33
  store i64 %36, ptr %1, align 8
  br label %93

.loopexit56:                                      ; preds = %25, %2, %12, %9
  %37 = getelementptr inbounds i8, ptr %0, i64 56
  %38 = load ptr, ptr %37, align 8
  %.not.i39 = icmp eq ptr %38, null
  br i1 %.not.i39, label %.thread.i, label %39

39:                                               ; preds = %.loopexit56
  %40 = getelementptr inbounds i8, ptr %38, i64 -8
  %41 = load i32, ptr %40, align 4
  %.not22.i40 = icmp eq i32 %41, 0
  br i1 %.not22.i40, label %.thread.i, label %.lr.ph.preheader.i41

.lr.ph.preheader.i41:                             ; preds = %39
  %wide.trip.count.i42 = zext i32 %41 to i64
  br label %.lr.ph.i43

.lr.ph.i43:                                       ; preds = %52, %.lr.ph.preheader.i41
  %indvars.iv.i44 = phi i64 [ 0, %.lr.ph.preheader.i41 ], [ %indvars.iv.next.i45, %52 ]
  %42 = getelementptr inbounds ptr, ptr %38, i64 %indvars.iv.i44
  %43 = load ptr, ptr %42, align 8
  %44 = load i64, ptr %43, align 8
  %45 = trunc i64 %44 to i32
  %46 = and i32 %45, 255
  %47 = icmp eq i32 %46, %7
  br i1 %47, label %48, label %52

48:                                               ; preds = %.lr.ph.i43
  %49 = getelementptr inbounds i8, ptr %43, i64 8
  %50 = load ptr, ptr %49, align 8
  %51 = icmp eq ptr %50, %4
  br i1 %51, label %asm_reg_find_decl.exit48, label %52

52:                                               ; preds = %48, %.lr.ph.i43
  %indvars.iv.next.i45 = add nuw nsw i64 %indvars.iv.i44, 1
  %exitcond.not.i46 = icmp eq i64 %indvars.iv.next.i45, %wide.trip.count.i42
  br i1 %exitcond.not.i46, label %.loopexit, label %.lr.ph.i43, !llvm.loop !10

asm_reg_find_decl.exit48:                         ; preds = %48
  %53 = and i64 %44, 4294901760
  %54 = and i64 %5, -4294901761
  %55 = or disjoint i64 %53, %54
  store i64 %55, ptr %1, align 8
  br label %93

.loopexit:                                        ; preds = %52
  %56 = icmp ugt i32 %41, 65535
  br i1 %56, label %57, label %.thread.i

57:                                               ; preds = %.loopexit
  tail call void (ptr, ...) @error_exit(ptr noundef nonnull @.str.19) #5
  unreachable

.thread.i:                                        ; preds = %39, %.loopexit56, %.loopexit
  %.022.i = phi i32 [ %41, %.loopexit ], [ 0, %.loopexit56 ], [ 0, %39 ]
  %58 = shl nuw i32 %.022.i, 16
  %59 = zext i32 %58 to i64
  %60 = and i64 %5, -4294901761
  %61 = or disjoint i64 %60, %59
  store i64 %61, ptr %1, align 8
  %62 = load ptr, ptr %37, align 8
  %.not.i.i = icmp eq ptr %62, null
  br i1 %.not.i.i, label %63, label %66

63:                                               ; preds = %.thread.i
  %64 = tail call ptr @calloc_arena(i64 noundef 72) #4
  %65 = getelementptr inbounds i8, ptr %64, i64 4
  store i32 8, ptr %65, align 4
  br label %68

66:                                               ; preds = %.thread.i
  %67 = getelementptr inbounds i8, ptr %62, i64 -8
  %.phi.trans.insert.i.i = getelementptr inbounds i8, ptr %62, i64 -4
  %.pre.i.i = load i32, ptr %.phi.trans.insert.i.i, align 4
  br label %68

68:                                               ; preds = %66, %63
  %69 = phi i32 [ %.pre.i.i, %66 ], [ 8, %63 ]
  %.0.i.i = phi ptr [ %67, %66 ], [ %64, %63 ]
  %70 = load i32, ptr %.0.i.i, align 4
  %71 = icmp eq i32 %70, %69
  br i1 %71, label %72, label %asm_add_input.exit

72:                                               ; preds = %68
  %73 = getelementptr inbounds i8, ptr %.0.i.i, i64 4
  %74 = shl i32 %69, 1
  %75 = zext i32 %74 to i64
  %76 = shl nuw nsw i64 %75, 3
  %77 = or disjoint i64 %76, 8
  %78 = tail call ptr @calloc_arena(i64 noundef %77) #4
  %79 = getelementptr inbounds i8, ptr %78, i64 4
  store i32 %74, ptr %79, align 4
  %80 = load i32, ptr %73, align 4
  %81 = zext i32 %80 to i64
  %82 = shl nuw nsw i64 %81, 3
  %83 = add nuw nsw i64 %82, 8
  tail call void @llvm.memcpy.p0.p0.i64(ptr noundef nonnull align 4 dereferenceable(1) %78, ptr noundef nonnull align 4 dereferenceable(1) %.0.i.i, i64 %83, i1 false)
  %84 = load i32, ptr %79, align 4
  %85 = shl i32 %84, 1
  store i32 %85, ptr %79, align 4
  %.pre18.i.i = load i32, ptr %78, align 4
  br label %asm_add_input.exit

asm_add_input.exit:                               ; preds = %68, %72
  %86 = phi i32 [ %.pre18.i.i, %72 ], [ %70, %68 ]
  %.1.i.i = phi ptr [ %78, %72 ], [ %.0.i.i, %68 ]
  %87 = add i32 %86, 1
  store i32 %87, ptr %.1.i.i, align 4
  %88 = getelementptr inbounds i8, ptr %.1.i.i, i64 8
  store ptr %88, ptr %37, align 8
  %89 = load i32, ptr %.1.i.i, align 4
  %90 = add i32 %89, -1
  %91 = zext i32 %90 to i64
  %92 = getelementptr inbounds ptr, ptr %88, i64 %91
  store ptr %1, ptr %92, align 8
  br label %93

93:                                               ; preds = %asm_reg_find_decl.exit48, %asm_add_input.exit, %asm_reg_find_decl.exit
  %94 = getelementptr inbounds i8, ptr %0, i64 48
  %95 = load ptr, ptr %94, align 8
  %.not38 = icmp eq ptr %95, null
  br i1 %.not38, label %._crit_edge, label %.thread53

.thread53:                                        ; preds = %93
  %96 = getelementptr inbounds i8, ptr %95, i64 -8
  %97 = load i32, ptr %96, align 4
  %.not = icmp eq i32 %97, 0
  br i1 %.not, label %._crit_edge, label %.lr.ph.preheader

.lr.ph.preheader:                                 ; preds = %.thread53
  %wide.trip.count = zext i32 %97 to i64
  br label %.lr.ph

.lr.ph:                                           ; preds = %.lr.ph.preheader, %.lr.ph
  %indvars.iv = phi i64 [ 0, %.lr.ph.preheader ], [ %indvars.iv.next, %.lr.ph ]
  %.160.in = getelementptr inbounds ptr, ptr %95, i64 %indvars.iv
  %.160 = load ptr, ptr %.160.in, align 8
  %98 = getelementptr inbounds i8, ptr %.160, i64 16
  %99 = load i8, ptr %98, align 8
  %100 = or i8 %99, 2
  store i8 %100, ptr %98, align 8
  %indvars.iv.next = add nuw nsw i64 %indvars.iv, 1
  %exitcond.not = icmp eq i64 %indvars.iv.next, %wide.trip.count
  br i1 %exitcond.not, label %._crit_edge, label %.lr.ph, !llvm.loop !11

._crit_edge:                                      ; preds = %.lr.ph, %93, %.thread53
  ret void
}